; Function Attrs: nounwind uwtable
define i32 @Abc_ResCost(ptr noundef %0, ptr noundef %1, i32 noundef %2, ptr noundef writeonly %3, ptr noundef %4) local_unnamed_addr #0 {
  %6 = tail call i32 @Abc_ResCofCount(ptr noundef %0, ptr noundef %1, i32 noundef %2, ptr noundef %4)
  %.not = icmp eq ptr %3, null
  br i1 %.not, label %8, label %7

7:                                                ; preds = %5
  store i32 %6, ptr %3, align 4
  br label %8

8:                                                ; preds = %7, %5
  %9 = icmp ult i32 %6, 2
  %10 = add i32 %6, -1
  %11 = tail call range(i32 0, 33) i32 @llvm.ctlz.i32(i32 %10, i1 true)
  %12 = sub nuw nsw i32 32, %11
  %.09.i = select i1 %9, i32 %6, i32 %12
  %13 = mul nsw i32 %.09.i, 10000
  %14 = add nsw i32 %.09.i, -1
  %.neg = shl nsw i32 -1, %14
  %15 = add i32 %.neg, %6
  %16 = mul nsw i32 %15, %15
  %17 = add nsw i32 %16, %13
  ret i32 %17
}